target datalayout = "e-m:e-p270:32:32-p271:32:32-p272:64:64-i64:64-f80:128-n8:16:32:64-S128"
target triple = "x86_64-pc-linux-gnu"

@.str = private unnamed_addr constant [5 x i8] c"%d%d\00", align 1
@.str.1 = private unnamed_addr constant [3 x i8] c"%d\00", align 1
@.str.2 = private unnamed_addr constant [4 x i8] c"%d\0A\00", align 1

; Function Attrs: noinline nounwind uwtable
define dso_local void @main() #0 {
  %1 = alloca i32, align 4
  %2 = alloca i32, align 4
  %3 = alloca i32, align 4
  %4 = alloca i32, align 4
  %5 = alloca [100 x [100 x i32]], align 16
  %6 = call i32 (i8*, ...) @__isoc99_scanf(i8* getelementptr inbounds ([5 x i8], [5 x i8]* @.str, i64 0, i64 0), i32* %1, i32* %2)
  %7 = bitcast [100 x [100 x i32]]* %5 to i8*
  call void @llvm.memset.p0i8.i64(i8* align 16 %7, i8 0, i64 40000, i1 false)
  store i32 0, i32* %3, align 4
  br label %8

8:                                                ; preds = %29, %0
  %9 = load i32, i32* %3, align 4
  %10 = load i32, i32* %1, align 4
  %11 = icmp slt i32 %9, %10
  br i1 %11, label %12, label %32

12:                                               ; preds = %8
  store i32 0, i32* %4, align 4
  br label %13

13:                                               ; preds = %25, %12
  %14 = load i32, i32* %4, align 4
  %15 = load i32, i32* %2, align 4
  %16 = icmp slt i32 %14, %15
  br i1 %16, label %17, label %28

17:                                               ; preds = %13
  %18 = load i32, i32* %3, align 4
  %19 = sext i32 %18 to i64
  %20 = getelementptr inbounds [100 x [100 x i32]], [100 x [100 x i32]]* %5, i64 0, i64 %19
  %21 = load i32, i32* %4, align 4
  %22 = sext i32 %21 to i64
  %23 = getelementptr inbounds [100 x i32], [100 x i32]* %20, i64 0, i64 %22
  %24 = call i32 (i8*, ...) @__isoc99_scanf(i8* getelementptr inbounds ([3 x i8], [3 x i8]* @.str.1, i64 0, i64 0), i32* %23)
  br label %25

25:                                               ; preds = %17
  %26 = load i32, i32* %4, align 4
  %27 = add nsw i32 %26, 1
  store i32 %27, i32* %4, align 4
  br label %13

28:                                               ; preds = %13
  br label %29

29:                                               ; preds = %28
  %30 = load i32, i32* %3, align 4
  %31 = add nsw i32 %30, 1
  store i32 %31, i32* %3, align 4
  br label %8

32:                                               ; preds = %8
  %33 = load i32, i32* %1, align 4
  %34 = load i32, i32* %2, align 4
  %35 = icmp sge i32 %33, %34
  br i1 %35, label %36, label %141

36:                                               ; preds = %32
  store i32 0, i32* %3, align 4
  br label %37

37:                                               ; preds = %137, %36
  %38 = load i32, i32* %3, align 4
  %39 = load i32, i32* %1, align 4
  %40 = load i32, i32* %2, align 4
  %41 = add nsw i32 %39, %40
  %42 = sub nsw i32 %41, 1
  %43 = icmp slt i32 %38, %42
  br i1 %43, label %44, label %140

44:                                               ; preds = %37
  %45 = load i32, i32* %3, align 4
  %46 = icmp sge i32 %45, 0
  br i1 %46, label %47, label %71

47:                                               ; preds = %44
  %48 = load i32, i32* %3, align 4
  %49 = load i32, i32* %2, align 4
  %50 = icmp slt i32 %48, %49
  br i1 %50, label %51, label %71

51:                                               ; preds = %47
  %52 = load i32, i32* %3, align 4
  store i32 %52, i32* %4, align 4
  br label %53

53:                                               ; preds = %67, %51
  %54 = load i32, i32* %4, align 4
  %55 = icmp sge i32 %54, 0
  br i1 %55, label %56, label %70

56:                                               ; preds = %53
  %57 = load i32, i32* %3, align 4
  %58 = load i32, i32* %4, align 4
  %59 = sub nsw i32 %57, %58
  %60 = sext i32 %59 to i64
  %61 = getelementptr inbounds [100 x [100 x i32]], [100 x [100 x i32]]* %5, i64 0, i64 %60
  %62 = load i32, i32* %4, align 4
  %63 = sext i32 %62 to i64
  %64 = getelementptr inbounds [100 x i32], [100 x i32]* %61, i64 0, i64 %63
  %65 = load i32, i32* %64, align 4
  %66 = call i32 (i8*, ...) @printf(i8* getelementptr inbounds ([4 x i8], [4 x i8]* @.str.2, i64 0, i64 0), i32 %65)
  br label %67

67:                                               ; preds = %56
  %68 = load i32, i32* %4, align 4
  %69 = add nsw i32 %68, -1
  store i32 %69, i32* %4, align 4
  br label %53

70:                                               ; preds = %53
  br label %71

71:                                               ; preds = %70, %47, %44
  %72 = load i32, i32* %3, align 4
  %73 = load i32, i32* %2, align 4
  %74 = icmp sge i32 %72, %73
  br i1 %74, label %75, label %100

75:                                               ; preds = %71
  %76 = load i32, i32* %3, align 4
  %77 = load i32, i32* %1, align 4
  %78 = icmp slt i32 %76, %77
  br i1 %78, label %79, label %100

79:                                               ; preds = %75
  %80 = load i32, i32* %2, align 4
  %81 = sub nsw i32 %80, 1
  store i32 %81, i32* %4, align 4
  br label %82

82:                                               ; preds = %96, %79
  %83 = load i32, i32* %4, align 4
  %84 = icmp sge i32 %83, 0
  br i1 %84, label %85, label %99

85:                                               ; preds = %82
  %86 = load i32, i32* %3, align 4
  %87 = load i32, i32* %4, align 4
  %88 = sub nsw i32 %86, %87
  %89 = sext i32 %88 to i64
  %90 = getelementptr inbounds [100 x [100 x i32]], [100 x [100 x i32]]* %5, i64 0, i64 %89
  %91 = load i32, i32* %4, align 4
  %92 = sext i32 %91 to i64
  %93 = getelementptr inbounds [100 x i32], [100 x i32]* %90, i64 0, i64 %92
  %94 = load i32, i32* %93, align 4
  %95 = call i32 (i8*, ...) @printf(i8* getelementptr inbounds ([4 x i8], [4 x i8]* @.str.2, i64 0, i64 0), i32 %94)
  br label %96

96:                                               ; preds = %85
  %97 = load i32, i32* %4, align 4
  %98 = add nsw i32 %97, -1
  store i32 %98, i32* %4, align 4
  br label %82

99:                                               ; preds = %82
  br label %100

100:                                              ; preds = %99, %75, %71
  %101 = load i32, i32* %3, align 4
  %102 = load i32, i32* %1, align 4
  %103 = sub nsw i32 %102, 1
  %104 = icmp sgt i32 %101, %103
  br i1 %104, label %105, label %136

105:                                              ; preds = %100
  %106 = load i32, i32* %3, align 4
  %107 = load i32, i32* %1, align 4
  %108 = load i32, i32* %2, align 4
  %109 = add nsw i32 %107, %108
  %110 = sub nsw i32 %109, 1
  %111 = icmp slt i32 %106, %110
  br i1 %111, label %112, label %136

112:                                              ; preds = %105
  %113 = load i32, i32* %2, align 4
  %114 = sub nsw i32 %113, 1
  store i32 %114, i32* %4, align 4
  br label %115

115:                                              ; preds = %132, %112
  %116 = load i32, i32* %4, align 4
  %117 = load i32, i32* %3, align 4
  %118 = load i32, i32* %1, align 4
  %119 = sub nsw i32 %117, %118
  %120 = icmp sgt i32 %116, %119
  br i1 %120, label %121, label %135

121:                                              ; preds = %115
  %122 = load i32, i32* %3, align 4
  %123 = load i32, i32* %4, align 4
  %124 = sub nsw i32 %122, %123
  %125 = sext i32 %124 to i64
  %126 = getelementptr inbounds [100 x [100 x i32]], [100 x [100 x i32]]* %5, i64 0, i64 %125
  %127 = load i32, i32* %4, align 4
  %128 = sext i32 %127 to i64
  %129 = getelementptr inbounds [100 x i32], [100 x i32]* %126, i64 0, i64 %128
  %130 = load i32, i32* %129, align 4
  %131 = call i32 (i8*, ...) @printf(i8* getelementptr inbounds ([4 x i8], [4 x i8]* @.str.2, i64 0, i64 0), i32 %130)
  br label %132

132:                                              ; preds = %121
  %133 = load i32, i32* %4, align 4
  %134 = add nsw i32 %133, -1
  store i32 %134, i32* %4, align 4
  br label %115

135:                                              ; preds = %115
  br label %136

136:                                              ; preds = %135, %105, %100
  br label %137

137:                                              ; preds = %136
  %138 = load i32, i32* %3, align 4
  %139 = add nsw i32 %138, 1
  store i32 %139, i32* %3, align 4
  br label %37

140:                                              ; preds = %37
  br label %141

141:                                              ; preds = %140, %32
  %142 = load i32, i32* %2, align 4
  %143 = load i32, i32* %1, align 4
  %144 = icmp sgt i32 %142, %143
  br i1 %144, label %145, label %248

145:                                              ; preds = %141
  store i32 0, i32* %4, align 4
  br label %146

146:                                              ; preds = %244, %145
  %147 = load i32, i32* %4, align 4
  %148 = load i32, i32* %1, align 4
  %149 = load i32, i32* %2, align 4
  %150 = add nsw i32 %148, %149
  %151 = icmp slt i32 %147, %150
  br i1 %151, label %152, label %247

152:                                              ; preds = %146
  %153 = load i32, i32* %4, align 4
  %154 = icmp sge i32 %153, 0
  br i1 %154, label %155, label %179

155:                                              ; preds = %152
  %156 = load i32, i32* %4, align 4
  %157 = load i32, i32* %1, align 4
  %158 = icmp slt i32 %156, %157
  br i1 %158, label %159, label %179

159:                                              ; preds = %155
  store i32 0, i32* %3, align 4
  br label %160

160:                                              ; preds = %175, %159
  %161 = load i32, i32* %3, align 4
  %162 = load i32, i32* %4, align 4
  %163 = icmp sle i32 %161, %162
  br i1 %163, label %164, label %178

164:                                              ; preds = %160
  %165 = load i32, i32* %3, align 4
  %166 = sext i32 %165 to i64
  %167 = getelementptr inbounds [100 x [100 x i32]], [100 x [100 x i32]]* %5, i64 0, i64 %166
  %168 = load i32, i32* %4, align 4
  %169 = load i32, i32* %3, align 4
  %170 = sub nsw i32 %168, %169
  %171 = sext i32 %170 to i64
  %172 = getelementptr inbounds [100 x i32], [100 x i32]* %167, i64 0, i64 %171
  %173 = load i32, i32* %172, align 4
  %174 = call i32 (i8*, ...) @printf(i8* getelementptr inbounds ([4 x i8], [4 x i8]* @.str.2, i64 0, i64 0), i32 %173)
  br label %175

175:                                              ; preds = %164
  %176 = load i32, i32* %3, align 4
  %177 = add nsw i32 %176, 1
  store i32 %177, i32* %3, align 4
  br label %160

178:                                              ; preds = %160
  br label %179

179:                                              ; preds = %178, %155, %152
  %180 = load i32, i32* %4, align 4
  %181 = load i32, i32* %1, align 4
  %182 = icmp sge i32 %180, %181
  br i1 %182, label %183, label %207

183:                                              ; preds = %179
  %184 = load i32, i32* %4, align 4
  %185 = load i32, i32* %2, align 4
  %186 = icmp slt i32 %184, %185
  br i1 %186, label %187, label %207

187:                                              ; preds = %183
  store i32 0, i32* %3, align 4
  br label %188

188:                                              ; preds = %203, %187
  %189 = load i32, i32* %3, align 4
  %190 = load i32, i32* %1, align 4
  %191 = icmp slt i32 %189, %190
  br i1 %191, label %192, label %206

192:                                              ; preds = %188
  %193 = load i32, i32* %3, align 4
  %194 = sext i32 %193 to i64
  %195 = getelementptr inbounds [100 x [100 x i32]], [100 x [100 x i32]]* %5, i64 0, i64 %194
  %196 = load i32, i32* %4, align 4
  %197 = load i32, i32* %3, align 4
  %198 = sub nsw i32 %196, %197
  %199 = sext i32 %198 to i64
  %200 = getelementptr inbounds [100 x i32], [100 x i32]* %195, i64 0, i64 %199
  %201 = load i32, i32* %200, align 4
  %202 = call i32 (i8*, ...) @printf(i8* getelementptr inbounds ([4 x i8], [4 x i8]* @.str.2, i64 0, i64 0), i32 %201)
  br label %203

203:                                              ; preds = %192
  %204 = load i32, i32* %3, align 4
  %205 = add nsw i32 %204, 1
  store i32 %205, i32* %3, align 4
  br label %188

206:                                              ; preds = %188
  br label %207

207:                                              ; preds = %206, %183, %179
  %208 = load i32, i32* %4, align 4
  %209 = load i32, i32* %2, align 4
  %210 = sub nsw i32 %209, 1
  %211 = icmp sgt i32 %208, %210
  br i1 %211, label %212, label %243

212:                                              ; preds = %207
  %213 = load i32, i32* %4, align 4
  %214 = load i32, i32* %1, align 4
  %215 = load i32, i32* %2, align 4
  %216 = add nsw i32 %214, %215
  %217 = sub nsw i32 %216, 1
  %218 = icmp slt i32 %213, %217
  br i1 %218, label %219, label %243

219:                                              ; preds = %212
  %220 = load i32, i32* %4, align 4
  %221 = load i32, i32* %2, align 4
  %222 = sub nsw i32 %220, %221
  %223 = add nsw i32 %222, 1
  store i32 %223, i32* %3, align 4
  br label %224

224:                                              ; preds = %239, %219
  %225 = load i32, i32* %3, align 4
  %226 = load i32, i32* %1, align 4
  %227 = icmp slt i32 %225, %226
  br i1 %227, label %228, label %242

228:                                              ; preds = %224
  %229 = load i32, i32* %3, align 4
  %230 = sext i32 %229 to i64
  %231 = getelementptr inbounds [100 x [100 x i32]], [100 x [100 x i32]]* %5, i64 0, i64 %230
  %232 = load i32, i32* %4, align 4
  %233 = load i32, i32* %3, align 4
  %234 = sub nsw i32 %232, %233
  %235 = sext i32 %234 to i64
  %236 = getelementptr inbounds [100 x i32], [100 x i32]* %231, i64 0, i64 %235
  %237 = load i32, i32* %236, align 4
  %238 = call i32 (i8*, ...) @printf(i8* getelementptr inbounds ([4 x i8], [4 x i8]* @.str.2, i64 0, i64 0), i32 %237)
  br label %239

239:                                              ; preds = %228
  %240 = load i32, i32* %3, align 4
  %241 = add nsw i32 %240, 1
  store i32 %241, i32* %3, align 4
  br label %224

242:                                              ; preds = %224
  br label %243

243:                                              ; preds = %242, %212, %207
  br label %244

244:                                              ; preds = %243
  %245 = load i32, i32* %4, align 4
  %246 = add nsw i32 %245, 1
  store i32 %246, i32* %4, align 4
  br label %146

247:                                              ; preds = %146
  br label %248

248:                                              ; preds = %247, %141
  ret void
}